; Function Attrs: mustprogress uwtable
define hidden void @_ZN2lp12int_gcd_test35fill_explanation_from_fixed_columnsERK6vectorINS_8row_cellI8rationalEELb1EjE(ptr nocapture noundef nonnull readonly align 8 dereferenceable(148) %this, ptr nocapture noundef nonnull readonly align 8 dereferenceable(8) %row) local_unnamed_addr #5 align 2 {
entry:
  %0 = load ptr, ptr %row, align 8
  %cmp.i.i = icmp eq ptr %0, null
  br i1 %cmp.i.i, label %for.end, label %_ZNK6vectorIN2lp8row_cellI8rationalEELb1EjE3endEv.exit

_ZNK6vectorIN2lp8row_cellI8rationalEELb1EjE3endEv.exit: ; preds = %entry
  %arrayidx.i.i = getelementptr inbounds i8, ptr %0, i64 -4
  %1 = load i32, ptr %arrayidx.i.i, align 4
  %2 = zext i32 %1 to i64
  %add.ptr.i = getelementptr inbounds %"class.lp::row_cell.97", ptr %0, i64 %2
  %cmp.not5 = icmp eq i32 %1, 0
  br i1 %cmp.not5, label %for.end, label %for.body.lr.ph

for.body.lr.ph:                                   ; preds = %_ZNK6vectorIN2lp8row_cellI8rationalEELb1EjE3endEv.exit
  %lra = getelementptr inbounds i8, ptr %this, i64 8
  br label %for.body

for.body:                                         ; preds = %for.body.lr.ph, %for.inc
  %__begin1.06 = phi ptr [ %0, %for.body.lr.ph ], [ %incdec.ptr, %for.inc ]
  %3 = load ptr, ptr %lra, align 8
  %4 = load i32, ptr %__begin1.06, align 8
  %call4 = tail call noundef zeroext i1 @_ZNK2lp10lar_solver15column_is_fixedEj(ptr noundef nonnull align 8 dereferenceable(1888) %3, i32 noundef %4)
  br i1 %call4, label %if.then, label %for.inc

if.then:                                          ; preds = %for.body
  %5 = load i32, ptr %__begin1.06, align 8
  tail call void @_ZN2lp12int_gcd_test45add_to_explanation_from_fixed_or_boxed_columnEj(ptr noundef nonnull align 8 dereferenceable(148) %this, i32 noundef %5)
  br label %for.inc

for.inc:                                          ; preds = %for.body, %if.then
  %incdec.ptr = getelementptr inbounds i8, ptr %__begin1.06, i64 40
  %cmp.not = icmp eq ptr %incdec.ptr, %add.ptr.i
  br i1 %cmp.not, label %for.end, label %for.body

for.end:                                          ; preds = %for.inc, %entry, %_ZNK6vectorIN2lp8row_cellI8rationalEELb1EjE3endEv.exit
  ret void
}